; Function Attrs: nounwind uwtable
define ptr @Abc_NodeHasUniqueCoFanout(ptr noundef readonly captures(none) %0) local_unnamed_addr #0 {
  %2 = getelementptr i8, ptr %0, i64 44
  %.val20 = load i32, ptr %2, align 4
  %3 = icmp sgt i32 %.val20, 0
  br i1 %3, label %.lr.ph, label %.critedge

.lr.ph:                                           ; preds = %1
  %4 = getelementptr i8, ptr %0, i64 48
  br label %5

5:                                                ; preds = %.lr.ph, %23
  %.val26 = phi i32 [ %.val20, %.lr.ph ], [ %.val, %23 ]
  %indvars.iv = phi i64 [ 0, %.lr.ph ], [ %indvars.iv.next, %23 ]
  %.01221 = phi ptr [ null, %.lr.ph ], [ %.1, %23 ]
  %.val16 = load ptr, ptr %0, align 8
  %.val17 = load ptr, ptr %4, align 8
  %6 = getelementptr i8, ptr %.val16, i64 32
  %.val16.val = load ptr, ptr %6, align 8
  %7 = getelementptr i8, ptr %.val16.val, i64 8
  %.val16.val.val = load ptr, ptr %7, align 8
  %8 = getelementptr inbounds nuw i32, ptr %.val17, i64 %indvars.iv
  %9 = load i32, ptr %8, align 4
  %10 = sext i32 %9 to i64
  %11 = getelementptr inbounds ptr, ptr %.val16.val.val, i64 %10
  %12 = load ptr, ptr %11, align 8
  %13 = getelementptr i8, ptr %12, i64 20
  %.val19 = load i32, ptr %13, align 4
  %14 = and i32 %.val19, 15
  %15 = add nsw i32 %14, -3
  %narrow.i = icmp ult i32 %15, 2
  %16 = and i32 %.val19, 1024
  %.not14 = icmp eq i32 %16, 0
  %or.cond = and i1 %.not14, %narrow.i
  br i1 %or.cond, label %17, label %23

17:                                               ; preds = %5
  %18 = icmp eq ptr %.01221, null
  br i1 %18, label %23, label %19

19:                                               ; preds = %17
  %20 = tail call ptr @Abc_ObjName(ptr noundef nonnull %.01221) #28
  %21 = tail call ptr @Abc_ObjName(ptr noundef nonnull %12) #28
  %22 = tail call i32 @strcmp(ptr noundef nonnull dereferenceable(1) %20, ptr noundef nonnull dereferenceable(1) %21) #31
  %.not15 = icmp eq i32 %22, 0
  br i1 %.not15, label %._crit_edge, label %.critedge

._crit_edge:                                      ; preds = %19
  %.val.pre = load i32, ptr %2, align 4
  br label %23

23:                                               ; preds = %._crit_edge, %17, %5
  %.val = phi i32 [ %.val.pre, %._crit_edge ], [ %.val26, %5 ], [ %.val26, %17 ]
  %.1 = phi ptr [ %.01221, %._crit_edge ], [ %.01221, %5 ], [ %12, %17 ]
  %indvars.iv.next = add nuw nsw i64 %indvars.iv, 1
  %24 = sext i32 %.val to i64
  %25 = icmp slt i64 %indvars.iv.next, %24
  br i1 %25, label %5, label %.critedge, !llvm.loop !48

.critedge:                                        ; preds = %19, %23, %1
  %.013 = phi ptr [ null, %1 ], [ %.1, %23 ], [ null, %19 ]
  ret ptr %.013
}